target datalayout = "e-m:e-p270:32:32-p271:32:32-p272:64:64-i64:64-i128:128-f80:128-n8:16:32:64-S128"
target triple = "x86_64-pc-linux-gnu"

%struct.H5FD_log_fapl_t = type { ptr, i64, i64 }
%struct.H5FD_log_t = type { %struct.H5FD_t, i32, i64, i64, i8, [1024 x i8], i64, i64, i8, ptr, ptr, ptr, i64, i64, i64, i64, double, double, double, double, i64, ptr, %struct.H5FD_log_fapl_t }
%struct.H5FD_t = type { i64, ptr, i64, i32, i64, i64, i64, i64, i64, i8 }

@H5FD_init_g = external global i8, align 1
@H5_libterm_g = external global i8, align 1
@flavors = internal global [7 x ptr] [ptr @.str.42, ptr @.str.43, ptr @.str.44, ptr @.str.45, ptr @.str.46, ptr @.str.47, ptr @.str.48], align 16
@.str.49 = private unnamed_addr constant [42 x i8] c"%10lu-%10lu (%10lu bytes) (%s) Allocated\0A\00", align 1
@.str.50 = private unnamed_addr constant [38 x i8] c"%10lu-%10lu (%10lu bytes) (%s) Freed\0A\00", align 1

; Function Attrs: nounwind uwtable
define internal i32 @H5FD__log_set_eoa(ptr noundef %0, i32 noundef %1, i64 noundef %2) #0 {
  %4 = alloca ptr, align 8
  %5 = alloca i32, align 4
  %6 = alloca i64, align 8
  %7 = alloca ptr, align 8
  %8 = alloca i64, align 8
  %9 = alloca i64, align 8
  store ptr %0, ptr %4, align 8, !tbaa !24
  store i32 %1, ptr %5, align 4, !tbaa !3
  store i64 %2, ptr %6, align 8, !tbaa !11
  call void @llvm.lifetime.start.p0(i64 8, ptr %7) #9
  %10 = load ptr, ptr %4, align 8, !tbaa !24
  store ptr %10, ptr %7, align 8, !tbaa !26
  %11 = load i8, ptr @H5FD_init_g, align 1, !tbaa !7, !range !9, !noundef !10
  %12 = trunc i8 %11 to i1
  br i1 %12, label %17, label %13

13:                                               ; preds = %3
  %14 = load i8, ptr @H5_libterm_g, align 1, !tbaa !7, !range !9, !noundef !10
  %15 = trunc i8 %14 to i1
  %16 = xor i1 %15, true
  br label %17

17:                                               ; preds = %13, %3
  %18 = phi i1 [ true, %3 ], [ %16, %13 ]
  %19 = xor i1 %18, true
  %20 = xor i1 %19, true
  %21 = zext i1 %20 to i32
  %22 = sext i32 %21 to i64
  %23 = call i64 @llvm.expect.i64(i64 %22, i64 1)
  %24 = icmp ne i64 %23, 0
  br i1 %24, label %25, label %162

25:                                               ; preds = %17
  %26 = load ptr, ptr %7, align 8, !tbaa !26
  %27 = getelementptr inbounds nuw %struct.H5FD_log_t, ptr %26, i32 0, i32 22
  %28 = getelementptr inbounds nuw %struct.H5FD_log_fapl_t, ptr %27, i32 0, i32 1
  %29 = load i64, ptr %28, align 8, !tbaa !46
  %30 = icmp ne i64 %29, 0
  br i1 %30, label %31, label %158

31:                                               ; preds = %25
  %32 = load i64, ptr %6, align 8, !tbaa !11
  %33 = icmp ne i64 %32, -1
  br i1 %33, label %34, label %96

34:                                               ; preds = %31
  %35 = load ptr, ptr %7, align 8, !tbaa !26
  %36 = getelementptr inbounds nuw %struct.H5FD_log_t, ptr %35, i32 0, i32 2
  %37 = load i64, ptr %36, align 8, !tbaa !66
  %38 = icmp ne i64 %37, -1
  br i1 %38, label %39, label %96

39:                                               ; preds = %34
  %40 = load i64, ptr %6, align 8, !tbaa !11
  %41 = load ptr, ptr %7, align 8, !tbaa !26
  %42 = getelementptr inbounds nuw %struct.H5FD_log_t, ptr %41, i32 0, i32 2
  %43 = load i64, ptr %42, align 8, !tbaa !66
  %44 = icmp ugt i64 %40, %43
  br i1 %44, label %45, label %96

45:                                               ; preds = %39
  %46 = load i64, ptr %6, align 8, !tbaa !11
  %47 = icmp ne i64 %46, -1
  br i1 %47, label %48, label %96

48:                                               ; preds = %45
  %49 = load i64, ptr %6, align 8, !tbaa !11
  %50 = icmp ugt i64 %49, 0
  br i1 %50, label %51, label %96

51:                                               ; preds = %48
  call void @llvm.lifetime.start.p0(i64 8, ptr %8) #9
  %52 = load i64, ptr %6, align 8, !tbaa !11
  %53 = load ptr, ptr %7, align 8, !tbaa !26
  %54 = getelementptr inbounds nuw %struct.H5FD_log_t, ptr %53, i32 0, i32 2
  %55 = load i64, ptr %54, align 8, !tbaa !66
  %56 = sub i64 %52, %55
  store i64 %56, ptr %8, align 8, !tbaa !11
  %57 = load ptr, ptr %7, align 8, !tbaa !26
  %58 = getelementptr inbounds nuw %struct.H5FD_log_t, ptr %57, i32 0, i32 22
  %59 = getelementptr inbounds nuw %struct.H5FD_log_fapl_t, ptr %58, i32 0, i32 1
  %60 = load i64, ptr %59, align 8, !tbaa !46
  %61 = and i64 %60, 64
  %62 = icmp ne i64 %61, 0
  br i1 %62, label %63, label %74

63:                                               ; preds = %51
  %64 = load ptr, ptr %7, align 8, !tbaa !26
  %65 = getelementptr inbounds nuw %struct.H5FD_log_t, ptr %64, i32 0, i32 11
  %66 = load ptr, ptr %65, align 8, !tbaa !52
  %67 = load ptr, ptr %7, align 8, !tbaa !26
  %68 = getelementptr inbounds nuw %struct.H5FD_log_t, ptr %67, i32 0, i32 2
  %69 = load i64, ptr %68, align 8, !tbaa !66
  %70 = getelementptr inbounds nuw i8, ptr %66, i64 %69
  %71 = load i32, ptr %5, align 4, !tbaa !3
  %72 = trunc i32 %71 to i8
  %73 = load i64, ptr %8, align 8, !tbaa !11
  call void @llvm.memset.p0.i64(ptr align 1 %70, i8 %72, i64 %73, i1 false)
  br label %74

74:                                               ; preds = %63, %51
  %75 = load ptr, ptr %7, align 8, !tbaa !26
  %76 = getelementptr inbounds nuw %struct.H5FD_log_t, ptr %75, i32 0, i32 22
  %77 = getelementptr inbounds nuw %struct.H5FD_log_fapl_t, ptr %76, i32 0, i32 1
  %78 = load i64, ptr %77, align 8, !tbaa !46
  %79 = and i64 %78, 262144
  %80 = icmp ne i64 %79, 0
  br i1 %80, label %81, label %95

81:                                               ; preds = %74
  %82 = load ptr, ptr %7, align 8, !tbaa !26
  %83 = getelementptr inbounds nuw %struct.H5FD_log_t, ptr %82, i32 0, i32 21
  %84 = load ptr, ptr %83, align 8, !tbaa !53
  %85 = load ptr, ptr %7, align 8, !tbaa !26
  %86 = getelementptr inbounds nuw %struct.H5FD_log_t, ptr %85, i32 0, i32 2
  %87 = load i64, ptr %86, align 8, !tbaa !66
  %88 = load i64, ptr %6, align 8, !tbaa !11
  %89 = load i64, ptr %8, align 8, !tbaa !11
  %90 = load i32, ptr %5, align 4, !tbaa !3
  %91 = sext i32 %90 to i64
  %92 = getelementptr inbounds [7 x ptr], ptr @flavors, i64 0, i64 %91
  %93 = load ptr, ptr %92, align 8, !tbaa !13
  %94 = call i32 (ptr, ptr, ...) @fprintf(ptr noundef %84, ptr noundef @.str.49, i64 noundef %87, i64 noundef %88, i64 noundef %89, ptr noundef %93) #9
  br label %95

95:                                               ; preds = %81, %74
  call void @llvm.lifetime.end.p0(i64 8, ptr %8) #9
  br label %96

96:                                               ; preds = %95, %48, %45, %39, %34, %31
  %97 = load i64, ptr %6, align 8, !tbaa !11
  %98 = icmp ne i64 %97, -1
  br i1 %98, label %99, label %157

99:                                               ; preds = %96
  %100 = load ptr, ptr %7, align 8, !tbaa !26
  %101 = getelementptr inbounds nuw %struct.H5FD_log_t, ptr %100, i32 0, i32 2
  %102 = load i64, ptr %101, align 8, !tbaa !66
  %103 = icmp ne i64 %102, -1
  br i1 %103, label %104, label %157

104:                                              ; preds = %99
  %105 = load i64, ptr %6, align 8, !tbaa !11
  %106 = load ptr, ptr %7, align 8, !tbaa !26
  %107 = getelementptr inbounds nuw %struct.H5FD_log_t, ptr %106, i32 0, i32 2
  %108 = load i64, ptr %107, align 8, !tbaa !66
  %109 = icmp ult i64 %105, %108
  br i1 %109, label %110, label %157

110:                                              ; preds = %104
  %111 = load i64, ptr %6, align 8, !tbaa !11
  %112 = icmp ne i64 %111, -1
  br i1 %112, label %113, label %157

113:                                              ; preds = %110
  %114 = load i64, ptr %6, align 8, !tbaa !11
  %115 = icmp ugt i64 %114, 0
  br i1 %115, label %116, label %157

116:                                              ; preds = %113
  call void @llvm.lifetime.start.p0(i64 8, ptr %9) #9
  %117 = load ptr, ptr %7, align 8, !tbaa !26
  %118 = getelementptr inbounds nuw %struct.H5FD_log_t, ptr %117, i32 0, i32 2
  %119 = load i64, ptr %118, align 8, !tbaa !66
  %120 = load i64, ptr %6, align 8, !tbaa !11
  %121 = sub i64 %119, %120
  store i64 %121, ptr %9, align 8, !tbaa !11
  %122 = load ptr, ptr %7, align 8, !tbaa !26
  %123 = getelementptr inbounds nuw %struct.H5FD_log_t, ptr %122, i32 0, i32 22
  %124 = getelementptr inbounds nuw %struct.H5FD_log_fapl_t, ptr %123, i32 0, i32 1
  %125 = load i64, ptr %124, align 8, !tbaa !46
  %126 = and i64 %125, 64
  %127 = icmp ne i64 %126, 0
  br i1 %127, label %128, label %135

128:                                              ; preds = %116
  %129 = load ptr, ptr %7, align 8, !tbaa !26
  %130 = getelementptr inbounds nuw %struct.H5FD_log_t, ptr %129, i32 0, i32 11
  %131 = load ptr, ptr %130, align 8, !tbaa !52
  %132 = load i64, ptr %6, align 8, !tbaa !11
  %133 = getelementptr inbounds nuw i8, ptr %131, i64 %132
  %134 = load i64, ptr %9, align 8, !tbaa !11
  call void @llvm.memset.p0.i64(ptr align 1 %133, i8 0, i64 %134, i1 false)
  br label %135

135:                                              ; preds = %128, %116
  %136 = load ptr, ptr %7, align 8, !tbaa !26
  %137 = getelementptr inbounds nuw %struct.H5FD_log_t, ptr %136, i32 0, i32 22
  %138 = getelementptr inbounds nuw %struct.H5FD_log_fapl_t, ptr %137, i32 0, i32 1
  %139 = load i64, ptr %138, align 8, !tbaa !46
  %140 = and i64 %139, 524288
  %141 = icmp ne i64 %140, 0
  br i1 %141, label %142, label %156

142:                                              ; preds = %135
  %143 = load ptr, ptr %7, align 8, !tbaa !26
  %144 = getelementptr inbounds nuw %struct.H5FD_log_t, ptr %143, i32 0, i32 21
  %145 = load ptr, ptr %144, align 8, !tbaa !53
  %146 = load ptr, ptr %7, align 8, !tbaa !26
  %147 = getelementptr inbounds nuw %struct.H5FD_log_t, ptr %146, i32 0, i32 2
  %148 = load i64, ptr %147, align 8, !tbaa !66
  %149 = load i64, ptr %6, align 8, !tbaa !11
  %150 = load i64, ptr %9, align 8, !tbaa !11
  %151 = load i32, ptr %5, align 4, !tbaa !3
  %152 = sext i32 %151 to i64
  %153 = getelementptr inbounds [7 x ptr], ptr @flavors, i64 0, i64 %152
  %154 = load ptr, ptr %153, align 8, !tbaa !13
  %155 = call i32 (ptr, ptr, ...) @fprintf(ptr noundef %145, ptr noundef @.str.50, i64 noundef %148, i64 noundef %149, i64 noundef %150, ptr noundef %154) #9
  br label %156

156:                                              ; preds = %142, %135
  call void @llvm.lifetime.end.p0(i64 8, ptr %9) #9
  br label %157

157:                                              ; preds = %156, %113, %110, %104, %99, %96
  br label %158

158:                                              ; preds = %157, %25
  %159 = load i64, ptr %6, align 8, !tbaa !11
  %160 = load ptr, ptr %7, align 8, !tbaa !26
  %161 = getelementptr inbounds nuw %struct.H5FD_log_t, ptr %160, i32 0, i32 2
  store i64 %159, ptr %161, align 8, !tbaa !66
  br label %162

162:                                              ; preds = %158, %17
  call void @llvm.lifetime.end.p0(i64 8, ptr %7) #9
  ret i32 0
}