; Function Attrs: nofree nounwind uwtable
define internal noundef i32 @H5FD__log_set_eoa(ptr noundef captures(none) %0, i32 noundef %1, i64 noundef %2) #8 {
  %4 = load i8, ptr @H5FD_init_g, align 1, !tbaa !3, !range !7, !noundef !8
  %5 = trunc nuw i8 %4 to i1
  %6 = load i8, ptr @H5_libterm_g, align 1, !range !7
  %7 = trunc nuw i8 %6 to i1
  %8 = xor i1 %7, true
  %9 = select i1 %5, i1 true, i1 %8
  br i1 %9, label %10, label %59, !prof !9

10:                                               ; preds = %3
  %11 = getelementptr inbounds nuw i8, ptr %0, i64 1272
  %12 = load i64, ptr %11, align 8, !tbaa !37
  %.not = icmp eq i64 %12, 0
  %.not50 = icmp eq i64 %2, -1
  %or.cond = or i1 %.not50, %.not
  br i1 %or.cond, label %.critedge, label %13

13:                                               ; preds = %10
  %14 = getelementptr inbounds nuw i8, ptr %0, i64 88
  %15 = load i64, ptr %14, align 8, !tbaa !57
  %16 = icmp ugt i64 %2, %15
  br i1 %16, label %17, label %thread-pre-split

17:                                               ; preds = %13
  %18 = sub nuw i64 %2, %15
  %19 = and i64 %12, 64
  %.not52 = icmp eq i64 %19, 0
  br i1 %.not52, label %25, label %20

20:                                               ; preds = %17
  %21 = getelementptr inbounds nuw i8, ptr %0, i64 1176
  %22 = load ptr, ptr %21, align 8, !tbaa !43
  %23 = getelementptr inbounds nuw i8, ptr %22, i64 %15
  %24 = trunc i32 %1 to i8
  tail call void @llvm.memset.p0.i64(ptr align 1 %23, i8 %24, i64 %18, i1 false)
  %.pre = load i64, ptr %11, align 8, !tbaa !37
  %.pr.pre57.pre = load i64, ptr %14, align 8, !tbaa !57
  br label %25

25:                                               ; preds = %20, %17
  %.pr.pre57 = phi i64 [ %.pr.pre57.pre, %20 ], [ %15, %17 ]
  %26 = phi i64 [ %.pre, %20 ], [ %12, %17 ]
  %27 = and i64 %26, 262144
  %.not53 = icmp eq i64 %27, 0
  br i1 %.not53, label %thread-pre-split, label %28

28:                                               ; preds = %25
  %29 = getelementptr inbounds nuw i8, ptr %0, i64 1256
  %30 = load ptr, ptr %29, align 8, !tbaa !45
  %31 = sext i32 %1 to i64
  %32 = getelementptr inbounds [7 x ptr], ptr @flavors, i64 0, i64 %31
  %33 = load ptr, ptr %32, align 8, !tbaa !61
  %34 = tail call i32 (ptr, ptr, ...) @fprintf(ptr noundef %30, ptr noundef nonnull @.str.49, i64 noundef %.pr.pre57, i64 noundef %2, i64 noundef %18, ptr noundef %33) #19
  %.pr.pre = load i64, ptr %14, align 8, !tbaa !57
  br label %thread-pre-split

thread-pre-split:                                 ; preds = %28, %25, %13
  %35 = phi i64 [ %15, %13 ], [ %.pr.pre57, %25 ], [ %.pr.pre, %28 ]
  %.not54 = icmp eq i64 %35, -1
  br i1 %.not54, label %.critedge, label %36

36:                                               ; preds = %thread-pre-split
  %37 = icmp ult i64 %2, %35
  %38 = icmp ne i64 %2, 0
  %or.cond7 = and i1 %38, %37
  br i1 %or.cond7, label %39, label %.critedge

39:                                               ; preds = %36
  %40 = sub nuw i64 %35, %2
  %41 = load i64, ptr %11, align 8, !tbaa !37
  %42 = and i64 %41, 64
  %.not55 = icmp eq i64 %42, 0
  br i1 %.not55, label %47, label %43

43:                                               ; preds = %39
  %44 = getelementptr inbounds nuw i8, ptr %0, i64 1176
  %45 = load ptr, ptr %44, align 8, !tbaa !43
  %46 = getelementptr inbounds nuw i8, ptr %45, i64 %2
  tail call void @llvm.memset.p0.i64(ptr nonnull align 1 %46, i8 0, i64 %40, i1 false)
  %.pre59 = load i64, ptr %11, align 8, !tbaa !37
  br label %47

47:                                               ; preds = %43, %39
  %48 = phi i64 [ %.pre59, %43 ], [ %41, %39 ]
  %49 = and i64 %48, 524288
  %.not56 = icmp eq i64 %49, 0
  br i1 %.not56, label %.critedge, label %50

50:                                               ; preds = %47
  %51 = getelementptr inbounds nuw i8, ptr %0, i64 1256
  %52 = load ptr, ptr %51, align 8, !tbaa !45
  %53 = load i64, ptr %14, align 8, !tbaa !57
  %54 = sext i32 %1 to i64
  %55 = getelementptr inbounds [7 x ptr], ptr @flavors, i64 0, i64 %54
  %56 = load ptr, ptr %55, align 8, !tbaa !61
  %57 = tail call i32 (ptr, ptr, ...) @fprintf(ptr noundef %52, ptr noundef nonnull @.str.50, i64 noundef %53, i64 noundef %2, i64 noundef %40, ptr noundef %56) #19
  br label %.critedge

.critedge:                                        ; preds = %47, %50, %thread-pre-split, %36, %10
  %58 = getelementptr inbounds nuw i8, ptr %0, i64 88
  store i64 %2, ptr %58, align 8, !tbaa !57
  br label %59

59:                                               ; preds = %.critedge, %3
  ret i32 0
}